; ModuleID = '14/1233.c'
source_filename = "14/1233.c"
target datalayout = "e-m:e-p270:32:32-p271:32:32-p272:64:64-i64:64-f80:128-n8:16:32:64-S128"
target triple = "x86_64-pc-linux-gnu"

%struct.student = type { i32, i32, i32, i32 }

@.str = private unnamed_addr constant [4 x i8] c"%ld\00", align 1
@stu = common dso_local global [100000 x %struct.student] zeroinitializer, align 16
@.str.1 = private unnamed_addr constant [7 x i8] c"%d%d%d\00", align 1
@.str.2 = private unnamed_addr constant [7 x i8] c"%d %d\0A\00", align 1
@.str.3 = private unnamed_addr constant [6 x i8] c"%d %d\00", align 1

; Function Attrs: noinline nounwind uwtable
define dso_local i32 @main() #0 {
  %1 = alloca i32, align 4
  %2 = alloca i64, align 8
  %3 = alloca i64, align 8
  %4 = alloca %struct.student*, align 8
  %5 = alloca i32, align 4
  %6 = alloca i32, align 4
  %7 = alloca i32, align 4
  %8 = alloca i32, align 4
  %9 = alloca i32, align 4
  %10 = alloca i32, align 4
  store i32 0, i32* %1, align 4
  %11 = call i32 (i8*, ...) @__isoc99_scanf(i8* getelementptr inbounds ([4 x i8], [4 x i8]* @.str, i64 0, i64 0), i64* %3)
  store %struct.student* getelementptr inbounds ([100000 x %struct.student], [100000 x %struct.student]* @stu, i64 0, i64 0), %struct.student** %4, align 8
  store i64 0, i64* %2, align 8
  br label %12

12:                                               ; preds = %33, %0
  %13 = load i64, i64* %2, align 8
  %14 = load i64, i64* %3, align 8
  %15 = icmp slt i64 %13, %14
  br i1 %15, label %16, label %38

16:                                               ; preds = %12
  %17 = load %struct.student*, %struct.student** %4, align 8
  %18 = getelementptr inbounds %struct.student, %struct.student* %17, i32 0, i32 0
  %19 = load %struct.student*, %struct.student** %4, align 8
  %20 = getelementptr inbounds %struct.student, %struct.student* %19, i32 0, i32 1
  %21 = load %struct.student*, %struct.student** %4, align 8
  %22 = getelementptr inbounds %struct.student, %struct.student* %21, i32 0, i32 2
  %23 = call i32 (i8*, ...) @__isoc99_scanf(i8* getelementptr inbounds ([7 x i8], [7 x i8]* @.str.1, i64 0, i64 0), i32* %18, i32* %20, i32* %22)
  %24 = load %struct.student*, %struct.student** %4, align 8
  %25 = getelementptr inbounds %struct.student, %struct.student* %24, i32 0, i32 1
  %26 = load i32, i32* %25, align 4
  %27 = load %struct.student*, %struct.student** %4, align 8
  %28 = getelementptr inbounds %struct.student, %struct.student* %27, i32 0, i32 2
  %29 = load i32, i32* %28, align 4
  %30 = add nsw i32 %26, %29
  %31 = load %struct.student*, %struct.student** %4, align 8
  %32 = getelementptr inbounds %struct.student, %struct.student* %31, i32 0, i32 3
  store i32 %30, i32* %32, align 4
  br label %33

33:                                               ; preds = %16
  %34 = load i64, i64* %2, align 8
  %35 = add nsw i64 %34, 1
  store i64 %35, i64* %2, align 8
  %36 = load %struct.student*, %struct.student** %4, align 8
  %37 = getelementptr inbounds %struct.student, %struct.student* %36, i32 1
  store %struct.student* %37, %struct.student** %4, align 8
  br label %12

38:                                               ; preds = %12
  store i32 0, i32* %8, align 4
  store i32 0, i32* %9, align 4
  store i32 0, i32* %10, align 4
  %39 = load i32, i32* getelementptr inbounds ([100000 x %struct.student], [100000 x %struct.student]* @stu, i64 0, i64 0, i32 3), align 4
  store i32 %39, i32* %5, align 4
  store i64 0, i64* %2, align 8
  br label %40

40:                                               ; preds = %59, %38
  %41 = load i64, i64* %2, align 8
  %42 = load i64, i64* %3, align 8
  %43 = icmp slt i64 %41, %42
  br i1 %43, label %44, label %62

44:                                               ; preds = %40
  %45 = load i64, i64* %2, align 8
  %46 = getelementptr inbounds [100000 x %struct.student], [100000 x %struct.student]* @stu, i64 0, i64 %45
  %47 = getelementptr inbounds %struct.student, %struct.student* %46, i32 0, i32 3
  %48 = load i32, i32* %47, align 4
  %49 = load i32, i32* %5, align 4
  %50 = icmp sgt i32 %48, %49
  br i1 %50, label %51, label %58

51:                                               ; preds = %44
  %52 = load i64, i64* %2, align 8
  %53 = getelementptr inbounds [100000 x %struct.student], [100000 x %struct.student]* @stu, i64 0, i64 %52
  %54 = getelementptr inbounds %struct.student, %struct.student* %53, i32 0, i32 3
  %55 = load i32, i32* %54, align 4
  store i32 %55, i32* %5, align 4
  %56 = load i64, i64* %2, align 8
  %57 = trunc i64 %56 to i32
  store i32 %57, i32* %8, align 4
  br label %58

58:                                               ; preds = %51, %44
  br label %59

59:                                               ; preds = %58
  %60 = load i64, i64* %2, align 8
  %61 = add nsw i64 %60, 1
  store i64 %61, i64* %2, align 8
  br label %40

62:                                               ; preds = %40
  %63 = load i32, i32* getelementptr inbounds ([100000 x %struct.student], [100000 x %struct.student]* @stu, i64 0, i64 0, i32 3), align 4
  store i32 %63, i32* %6, align 4
  store i64 0, i64* %2, align 8
  br label %64

64:                                               ; preds = %88, %62
  %65 = load i64, i64* %2, align 8
  %66 = load i64, i64* %3, align 8
  %67 = icmp slt i64 %65, %66
  br i1 %67, label %68, label %91

68:                                               ; preds = %64
  %69 = load i64, i64* %2, align 8
  %70 = getelementptr inbounds [100000 x %struct.student], [100000 x %struct.student]* @stu, i64 0, i64 %69
  %71 = getelementptr inbounds %struct.student, %struct.student* %70, i32 0, i32 3
  %72 = load i32, i32* %71, align 4
  %73 = load i32, i32* %6, align 4
  %74 = icmp sgt i32 %72, %73
  br i1 %74, label %75, label %87

75:                                               ; preds = %68
  %76 = load i64, i64* %2, align 8
  %77 = load i32, i32* %8, align 4
  %78 = sext i32 %77 to i64
  %79 = icmp ne i64 %76, %78
  br i1 %79, label %80, label %87

80:                                               ; preds = %75
  %81 = load i64, i64* %2, align 8
  %82 = getelementptr inbounds [100000 x %struct.student], [100000 x %struct.student]* @stu, i64 0, i64 %81
  %83 = getelementptr inbounds %struct.student, %struct.student* %82, i32 0, i32 3
  %84 = load i32, i32* %83, align 4
  store i32 %84, i32* %6, align 4
  %85 = load i64, i64* %2, align 8
  %86 = trunc i64 %85 to i32
  store i32 %86, i32* %9, align 4
  br label %87

87:                                               ; preds = %80, %75, %68
  br label %88

88:                                               ; preds = %87
  %89 = load i64, i64* %2, align 8
  %90 = add nsw i64 %89, 1
  store i64 %90, i64* %2, align 8
  br label %64

91:                                               ; preds = %64
  %92 = load i32, i32* getelementptr inbounds ([100000 x %struct.student], [100000 x %struct.student]* @stu, i64 0, i64 0, i32 3), align 4
  store i32 %92, i32* %7, align 4
  store i64 0, i64* %2, align 8
  br label %93

93:                                               ; preds = %119, %91
  %94 = load i64, i64* %2, align 8
  %95 = load i64, i64* %3, align 8
  %96 = icmp slt i64 %94, %95
  br i1 %96, label %97, label %122

97:                                               ; preds = %93
  %98 = load i64, i64* %2, align 8
  %99 = getelementptr inbounds [100000 x %struct.student], [100000 x %struct.student]* @stu, i64 0, i64 %98
  %100 = getelementptr inbounds %struct.student, %struct.student* %99, i32 0, i32 3
  %101 = load i32, i32* %100, align 4
  %102 = load i32, i32* %7, align 4
  %103 = icmp sgt i32 %101, %102
  br i1 %103, label %104, label %118

104:                                              ; preds = %97
  %105 = load i64, i64* %2, align 8
  %106 = getelementptr inbounds [100000 x %struct.student], [100000 x %struct.student]* @stu, i64 0, i64 %105
  %107 = getelementptr inbounds %struct.student, %struct.student* %106, i32 0, i32 3
  %108 = load i32, i32* %107, align 4
  %109 = load i32, i32* %6, align 4
  %110 = icmp slt i32 %108, %109
  br i1 %110, label %111, label %118

111:                                              ; preds = %104
  %112 = load i64, i64* %2, align 8
  %113 = getelementptr inbounds [100000 x %struct.student], [100000 x %struct.student]* @stu, i64 0, i64 %112
  %114 = getelementptr inbounds %struct.student, %struct.student* %113, i32 0, i32 3
  %115 = load i32, i32* %114, align 4
  store i32 %115, i32* %7, align 4
  %116 = load i64, i64* %2, align 8
  %117 = trunc i64 %116 to i32
  store i32 %117, i32* %10, align 4
  br label %118

118:                                              ; preds = %111, %104, %97
  br label %119

119:                                              ; preds = %118
  %120 = load i64, i64* %2, align 8
  %121 = add nsw i64 %120, 1
  store i64 %121, i64* %2, align 8
  br label %93

122:                                              ; preds = %93
  %123 = load i32, i32* %8, align 4
  %124 = sext i32 %123 to i64
  %125 = getelementptr inbounds [100000 x %struct.student], [100000 x %struct.student]* @stu, i64 0, i64 %124
  %126 = getelementptr inbounds %struct.student, %struct.student* %125, i32 0, i32 0
  %127 = load i32, i32* %126, align 16
  %128 = load i32, i32* %8, align 4
  %129 = sext i32 %128 to i64
  %130 = getelementptr inbounds [100000 x %struct.student], [100000 x %struct.student]* @stu, i64 0, i64 %129
  %131 = getelementptr inbounds %struct.student, %struct.student* %130, i32 0, i32 3
  %132 = load i32, i32* %131, align 4
  %133 = call i32 (i8*, ...) @printf(i8* getelementptr inbounds ([7 x i8], [7 x i8]* @.str.2, i64 0, i64 0), i32 %127, i32 %132)
  %134 = load i32, i32* %9, align 4
  %135 = sext i32 %134 to i64
  %136 = getelementptr inbounds [100000 x %struct.student], [100000 x %struct.student]* @stu, i64 0, i64 %135
  %137 = getelementptr inbounds %struct.student, %struct.student* %136, i32 0, i32 0
  %138 = load i32, i32* %137, align 16
  %139 = load i32, i32* %9, align 4
  %140 = sext i32 %139 to i64
  %141 = getelementptr inbounds [100000 x %struct.student], [100000 x %struct.student]* @stu, i64 0, i64 %140
  %142 = getelementptr inbounds %struct.student, %struct.student* %141, i32 0, i32 3
  %143 = load i32, i32* %142, align 4
  %144 = call i32 (i8*, ...) @printf(i8* getelementptr inbounds ([7 x i8], [7 x i8]* @.str.2, i64 0, i64 0), i32 %138, i32 %143)
  %145 = load i32, i32* %10, align 4
  %146 = sext i32 %145 to i64
  %147 = getelementptr inbounds [100000 x %struct.student], [100000 x %struct.student]* @stu, i64 0, i64 %146
  %148 = getelementptr inbounds %struct.student, %struct.student* %147, i32 0, i32 0
  %149 = load i32, i32* %148, align 16
  %150 = load i32, i32* %10, align 4
  %151 = sext i32 %150 to i64
  %152 = getelementptr inbounds [100000 x %struct.student], [100000 x %struct.student]* @stu, i64 0, i64 %151
  %153 = getelementptr inbounds %struct.student, %struct.student* %152, i32 0, i32 3
  %154 = load i32, i32* %153, align 4
  %155 = call i32 (i8*, ...) @printf(i8* getelementptr inbounds ([6 x i8], [6 x i8]* @.str.3, i64 0, i64 0), i32 %149, i32 %154)
  ret i32 0
}

declare dso_local i32 @__isoc99_scanf(i8*, ...) #1

declare dso_local i32 @printf(i8*, ...) #1


!llvm.module.flags = !{!0}
!llvm.ident = !{!1}

!0 = !{i32 1, !"wchar_size", i32 4}
!1 = !{!"clang version 10.0.0-4ubuntu1 "}
